; Function Attrs: nounwind uwtable
define internal void @writetup_heap(ptr noundef readonly captures(none) %0, ptr noundef %1, ptr noundef readonly captures(none) %2) #0 {
  %4 = alloca i32, align 4
  %5 = load ptr, ptr %2, align 8
  %6 = getelementptr inbounds nuw i8, ptr %5, i64 10
  %7 = load i32, ptr %5, align 4
  %8 = add i32 %7, -10
  call void @llvm.lifetime.start.p0(i64 4, ptr nonnull %4) #12
  %9 = zext i32 %8 to i64
  %10 = add i32 %7, -6
  store i32 %10, ptr %4, align 4
  call void @LogicalTapeWrite(ptr noundef %1, ptr noundef nonnull %4, i64 noundef 4) #12
  call void @LogicalTapeWrite(ptr noundef %1, ptr noundef nonnull %6, i64 noundef %9) #12
  %11 = getelementptr inbounds nuw i8, ptr %0, i64 96
  %12 = load i32, ptr %11, align 8
  %13 = and i32 %12, 1
  %.not = icmp eq i32 %13, 0
  br i1 %.not, label %15, label %14

14:                                               ; preds = %3
  call void @LogicalTapeWrite(ptr noundef %1, ptr noundef nonnull %4, i64 noundef 4) #12
  br label %15

15:                                               ; preds = %14, %3
  call void @llvm.lifetime.end.p0(i64 4, ptr nonnull %4) #12
  ret void
}